; Function Attrs: mustprogress nounwind uwtable
define dso_local noundef ptr @_ZN4llvm12DIExpression7prependEPKS0_hl(ptr nocapture noundef readonly %0, i8 noundef zeroext %1, i64 noundef %2) local_unnamed_addr #0 align 2 {
  %4 = alloca %"class.llvm::SmallVector.637", align 8
  %5 = getelementptr inbounds i8, ptr %4, i64 16
  call void @_ZN4llvm15SmallVectorBaseIjEC2EPvm(ptr noundef nonnull align 8 dereferenceable(16) %4, ptr noundef nonnull %5, i64 noundef 8) #24
  %6 = zext i8 %1 to i32
  %7 = and i32 %6, 1
  %.not = icmp eq i32 %7, 0
  br i1 %.not, label %18, label %8

8:                                                ; preds = %3
  %9 = call noundef i64 @_ZNK4llvm15SmallVectorBaseIjE4sizeEv(ptr noundef nonnull align 8 dereferenceable(16) %4) #24
  %10 = add i64 %9, 1
  %11 = call noundef i64 @_ZNK4llvm15SmallVectorBaseIjE8capacityEv(ptr noundef nonnull align 8 dereferenceable(16) %4) #24
  %.not.i.i.i = icmp ugt i64 %10, %11
  br i1 %.not.i.i.i, label %12, label %_ZN4llvm23SmallVectorTemplateBaseImLb1EE9push_backEm.exit

12:                                               ; preds = %8
  call void @_ZN4llvm15SmallVectorBaseIjE8grow_podEPvmm(ptr noundef nonnull align 8 dereferenceable(16) %4, ptr noundef nonnull %5, i64 noundef %10, i64 noundef 8) #24
  br label %_ZN4llvm23SmallVectorTemplateBaseImLb1EE9push_backEm.exit

_ZN4llvm23SmallVectorTemplateBaseImLb1EE9push_backEm.exit: ; preds = %8, %12
  %13 = load ptr, ptr %4, align 8
  %14 = call noundef i64 @_ZNK4llvm15SmallVectorBaseIjE4sizeEv(ptr noundef nonnull align 8 dereferenceable(16) %4) #24
  %15 = getelementptr inbounds i64, ptr %13, i64 %14
  store i64 6, ptr %15, align 1
  %16 = call noundef i64 @_ZNK4llvm15SmallVectorBaseIjE4sizeEv(ptr noundef nonnull align 8 dereferenceable(16) %4) #24
  %17 = add i64 %16, 1
  call void @_ZN4llvm15SmallVectorBaseIjE8set_sizeEm(ptr noundef nonnull align 8 dereferenceable(16) %4, i64 noundef %17) #24
  br label %18

18:                                               ; preds = %_ZN4llvm23SmallVectorTemplateBaseImLb1EE9push_backEm.exit, %3
  call void @_ZN4llvm12DIExpression12appendOffsetERNS_15SmallVectorImplImEEl(ptr noundef nonnull align 8 dereferenceable(16) %4, i64 noundef %2)
  %19 = and i32 %6, 2
  %.not7 = icmp eq i32 %19, 0
  br i1 %.not7, label %30, label %20

20:                                               ; preds = %18
  %21 = call noundef i64 @_ZNK4llvm15SmallVectorBaseIjE4sizeEv(ptr noundef nonnull align 8 dereferenceable(16) %4) #24
  %22 = add i64 %21, 1
  %23 = call noundef i64 @_ZNK4llvm15SmallVectorBaseIjE8capacityEv(ptr noundef nonnull align 8 dereferenceable(16) %4) #24
  %.not.i.i.i8 = icmp ugt i64 %22, %23
  br i1 %.not.i.i.i8, label %24, label %_ZN4llvm23SmallVectorTemplateBaseImLb1EE9push_backEm.exit9

24:                                               ; preds = %20
  call void @_ZN4llvm15SmallVectorBaseIjE8grow_podEPvmm(ptr noundef nonnull align 8 dereferenceable(16) %4, ptr noundef nonnull %5, i64 noundef %22, i64 noundef 8) #24
  br label %_ZN4llvm23SmallVectorTemplateBaseImLb1EE9push_backEm.exit9

_ZN4llvm23SmallVectorTemplateBaseImLb1EE9push_backEm.exit9: ; preds = %20, %24
  %25 = load ptr, ptr %4, align 8
  %26 = call noundef i64 @_ZNK4llvm15SmallVectorBaseIjE4sizeEv(ptr noundef nonnull align 8 dereferenceable(16) %4) #24
  %27 = getelementptr inbounds i64, ptr %25, i64 %26
  store i64 6, ptr %27, align 1
  %28 = call noundef i64 @_ZNK4llvm15SmallVectorBaseIjE4sizeEv(ptr noundef nonnull align 8 dereferenceable(16) %4) #24
  %29 = add i64 %28, 1
  call void @_ZN4llvm15SmallVectorBaseIjE8set_sizeEm(ptr noundef nonnull align 8 dereferenceable(16) %4, i64 noundef %29) #24
  br label %30

30:                                               ; preds = %_ZN4llvm23SmallVectorTemplateBaseImLb1EE9push_backEm.exit9, %18
  %31 = and i32 %6, 4
  %32 = icmp ne i32 %31, 0
  %33 = and i32 %6, 8
  %34 = icmp ne i32 %33, 0
  %35 = call noundef ptr @_ZN4llvm12DIExpression14prependOpcodesEPKS0_RNS_15SmallVectorImplImEEbb(ptr noundef %0, ptr noundef nonnull align 8 dereferenceable(16) %4, i1 noundef zeroext %32, i1 noundef zeroext %34)
  %36 = call noundef i64 @_ZNK4llvm15SmallVectorBaseIjE4sizeEv(ptr noundef nonnull align 8 dereferenceable(16) %4) #24
  %37 = load ptr, ptr %4, align 8
  %38 = icmp eq ptr %37, %5
  br i1 %38, label %_ZN4llvm11SmallVectorImLj8EED2Ev.exit, label %39

39:                                               ; preds = %30
  call void @free(ptr noundef %37) #24
  br label %_ZN4llvm11SmallVectorImLj8EED2Ev.exit

_ZN4llvm11SmallVectorImLj8EED2Ev.exit:            ; preds = %30, %39
  ret ptr %35
}